; ModuleID = 'source-C-CXX/30/1749.c'
source_filename = "source-C-CXX/30/1749.c"
target datalayout = "e-m:e-p270:32:32-p271:32:32-p272:64:64-i64:64-f80:128-n8:16:32:64-S128"
target triple = "x86_64-pc-linux-gnu"

%struct.student = type { [100 x i8], [100 x i8], i8, i32, [100000 x i8], [100 x i8], %struct.student* }

@str = dso_local global [4 x i8] c"end\00", align 1
@.str = private unnamed_addr constant [18 x i8] c"%s %s %c %d %s %s\00", align 1
@.str.1 = private unnamed_addr constant [3 x i8] c"%s\00", align 1
@.str.2 = private unnamed_addr constant [15 x i8] c"%s %c %d %s %s\00", align 1
@.str.3 = private unnamed_addr constant [19 x i8] c"%s %s %c %d %s %s\0A\00", align 1

; Function Attrs: nofree nounwind sspstrong uwtable
define dso_local %struct.student* @create() local_unnamed_addr #0 {
  %1 = tail call noalias align 16 dereferenceable_or_null(100) i8* @malloc(i64 100) #4
  %2 = bitcast i8* %1 to %struct.student*
  %3 = getelementptr inbounds %struct.student, %struct.student* %2, i64 0, i32 0, i64 0
  %4 = getelementptr inbounds %struct.student, %struct.student* %2, i64 0, i32 1, i64 0
  %5 = getelementptr inbounds %struct.student, %struct.student* %2, i64 0, i32 2
  %6 = getelementptr inbounds %struct.student, %struct.student* %2, i64 0, i32 3
  %7 = getelementptr inbounds %struct.student, %struct.student* %2, i64 0, i32 4, i64 0
  %8 = getelementptr inbounds %struct.student, %struct.student* %2, i64 0, i32 5, i64 0
  %9 = tail call i32 (i8*, ...) @__isoc99_scanf(i8* getelementptr inbounds ([18 x i8], [18 x i8]* @.str, i64 0, i64 0), i8* %3, i8* nonnull %4, i8* nonnull %5, i32* nonnull %6, i8* nonnull %7, i8* nonnull %8)
  %10 = getelementptr inbounds %struct.student, %struct.student* %2, i64 0, i32 6
  store %struct.student* null, %struct.student** %10, align 8, !tbaa !5
  %11 = tail call noalias align 16 dereferenceable_or_null(100) i8* @malloc(i64 100) #4
  %12 = tail call i32 (i8*, ...) @__isoc99_scanf(i8* getelementptr inbounds ([3 x i8], [3 x i8]* @.str.1, i64 0, i64 0), i8* %11)
  %13 = tail call i32 @strcmp(i8* noundef nonnull dereferenceable(1) %11, i8* noundef nonnull dereferenceable(1) getelementptr inbounds ([4 x i8], [4 x i8]* @str, i64 0, i64 0)) #5
  %14 = icmp eq i32 %13, 0
  br i1 %14, label %33, label %15

15:                                               ; preds = %0, %15
  %16 = phi %struct.student* [ %18, %15 ], [ %2, %0 ]
  %17 = phi i8* [ %27, %15 ], [ %11, %0 ]
  %18 = bitcast i8* %17 to %struct.student*
  %19 = getelementptr inbounds i8, i8* %17, i64 100
  %20 = getelementptr inbounds i8, i8* %17, i64 200
  %21 = getelementptr inbounds i8, i8* %17, i64 204
  %22 = getelementptr inbounds i8, i8* %17, i64 208
  %23 = getelementptr inbounds i8, i8* %17, i64 100208
  %24 = tail call i32 (i8*, ...) @__isoc99_scanf(i8* getelementptr inbounds ([15 x i8], [15 x i8]* @.str.2, i64 0, i64 0), i8* nonnull %19, i8* nonnull %20, i8* nonnull %21, i8* nonnull %22, i8* nonnull %23)
  %25 = getelementptr inbounds i8, i8* %17, i64 100312
  %26 = bitcast i8* %25 to %struct.student**
  store %struct.student* %16, %struct.student** %26, align 8, !tbaa !5
  %27 = tail call noalias align 16 dereferenceable_or_null(100) i8* @malloc(i64 100) #4
  %28 = tail call i32 (i8*, ...) @__isoc99_scanf(i8* getelementptr inbounds ([3 x i8], [3 x i8]* @.str.1, i64 0, i64 0), i8* %27)
  %29 = tail call i32 @strcmp(i8* noundef nonnull dereferenceable(1) %27, i8* noundef nonnull dereferenceable(1) getelementptr inbounds ([4 x i8], [4 x i8]* @str, i64 0, i64 0)) #5
  %30 = icmp eq i32 %29, 0
  br i1 %30, label %31, label %15

31:                                               ; preds = %15
  %32 = bitcast i8* %17 to %struct.student*
  br label %33

33:                                               ; preds = %31, %0
  %34 = phi %struct.student* [ %2, %0 ], [ %32, %31 ]
  ret %struct.student* %34
}

; Function Attrs: inaccessiblememonly mustprogress nofree nounwind willreturn
declare noalias noundef align 16 i8* @malloc(i64 noundef) local_unnamed_addr #1

; Function Attrs: nofree nounwind
declare noundef i32 @__isoc99_scanf(i8* nocapture noundef readonly, ...) local_unnamed_addr #2

; Function Attrs: argmemonly mustprogress nofree nounwind readonly willreturn
declare i32 @strcmp(i8* nocapture, i8* nocapture) local_unnamed_addr #3

; Function Attrs: nofree nounwind sspstrong uwtable
define dso_local void @main() local_unnamed_addr #0 {
  %1 = tail call %struct.student* @create()
  br label %2

2:                                                ; preds = %2, %0
  %3 = phi %struct.student* [ %1, %0 ], [ %15, %2 ]
  %4 = getelementptr inbounds %struct.student, %struct.student* %3, i64 0, i32 0, i64 0
  %5 = getelementptr inbounds %struct.student, %struct.student* %3, i64 0, i32 1, i64 0
  %6 = getelementptr inbounds %struct.student, %struct.student* %3, i64 0, i32 2
  %7 = load i8, i8* %6, align 8, !tbaa !11
  %8 = sext i8 %7 to i32
  %9 = getelementptr inbounds %struct.student, %struct.student* %3, i64 0, i32 3
  %10 = load i32, i32* %9, align 4, !tbaa !12
  %11 = getelementptr inbounds %struct.student, %struct.student* %3, i64 0, i32 4, i64 0
  %12 = getelementptr inbounds %struct.student, %struct.student* %3, i64 0, i32 5, i64 0
  %13 = tail call i32 (i8*, ...) @printf(i8* nonnull dereferenceable(1) getelementptr inbounds ([19 x i8], [19 x i8]* @.str.3, i64 0, i64 0), i8* %4, i8* nonnull %5, i32 %8, i32 %10, i8* nonnull %11, i8* nonnull %12)
  %14 = getelementptr inbounds %struct.student, %struct.student* %3, i64 0, i32 6
  %15 = load %struct.student*, %struct.student** %14, align 8, !tbaa !5
  %16 = icmp eq %struct.student* %15, null
  br i1 %16, label %17, label %2, !llvm.loop !13

17:                                               ; preds = %2
  ret void
}

; Function Attrs: nofree nounwind
declare noundef i32 @printf(i8* nocapture noundef readonly, ...) local_unnamed_addr #2


!llvm.module.flags = !{!0, !1, !2, !3}
!llvm.ident = !{!4}

!0 = !{i32 1, !"wchar_size", i32 4}
!1 = !{i32 7, !"PIC Level", i32 2}
!2 = !{i32 7, !"PIE Level", i32 2}
!3 = !{i32 7, !"uwtable", i32 1}
!4 = !{!"clang version 13.0.0"}
!5 = !{!6, !10, i64 100312}
!6 = !{!"student", !7, i64 0, !7, i64 100, !7, i64 200, !9, i64 204, !7, i64 208, !7, i64 100208, !10, i64 100312}
!7 = !{!"omnipotent char", !8, i64 0}
!8 = !{!"Simple C/C++ TBAA"}
!9 = !{!"int", !7, i64 0}
!10 = !{!"any pointer", !7, i64 0}
!11 = !{!6, !7, i64 200}
!12 = !{!6, !9, i64 204}
!13 = distinct !{!13, !14}
!14 = !{!"llvm.loop.mustprogress"}
